target datalayout = "e-m:e-p270:32:32-p271:32:32-p272:64:64-i64:64-i128:128-f80:128-n8:16:32:64-S128"
target triple = "x86_64-pc-linux-gnu"

%struct.ssl_connection_st = type { %struct.ssl_st, ptr, i32, ptr, ptr, ptr, i32, ptr, i32, i32, i32, i32, %struct.OSSL_TIME, %struct.OSSL_TIME, %struct.ossl_statem_st, i32, ptr, ptr, i64, i64, i64, %struct.ossl_quic_tls_callbacks_st, ptr, ptr, %struct.anon, ptr, ptr, ptr, i32, ptr, %struct.ssl_dane_st, ptr, ptr, ptr, ptr, i32, [64 x i8], [64 x i8], [64 x i8], [64 x i8], [64 x i8], [64 x i8], [64 x i8], [64 x i8], [64 x i8], [64 x i8], [64 x i8], [64 x i8], ptr, [64 x i8], i64, i32, i64, [32 x i8], ptr, ptr, ptr, i64, ptr, [32 x i8], i64, i32, ptr, ptr, i32, i32, ptr, ptr, ptr, ptr, ptr, i64, ptr, ptr, i64, i32, i32, i32, i64, i32, i32, i64, i64, i64, %struct.anon.1, ptr, i32, ptr, ptr, ptr, i32, ptr, ptr, ptr, i32, i32, i32, i32, ptr, i64, i32, ptr, %struct.srp_ctx_st, ptr, %struct.record_layer_st, ptr, ptr, ptr, ptr, i64, i32, i32, i32, i64, i64, i64, ptr, ptr, ptr, ptr, ptr, i64, ptr, i64, ptr, i64 }
%struct.ssl_st = type { i32, ptr, ptr, ptr, %struct.CRYPTO_REF_COUNT, ptr, %struct.crypto_ex_data_st }
%struct.CRYPTO_REF_COUNT = type { i32 }
%struct.crypto_ex_data_st = type { ptr, ptr }
%struct.OSSL_TIME = type { i64 }
%struct.ossl_statem_st = type { i32, i32, i32, i32, i32, i32, i32, i32, i32, i32, i32, i32, i32, ptr, ptr, ptr, i8 }
%struct.ossl_quic_tls_callbacks_st = type { ptr, ptr, ptr, ptr, ptr, ptr }
%struct.anon = type { i64, [32 x i8], [32 x i8], ptr, ptr, i32, i32, i32, i32, [2 x i8], i32, i32, i32, i32, %struct.anon.0, [64 x i8], i64, [64 x i8], i64, i32, i32, ptr, i64, ptr, i64, i32, i8, i8, i16, ptr, i16 }
%struct.anon.0 = type { [128 x i8], i64, [128 x i8], i64, i64, i32, ptr, ptr, [4 x ptr], [4 x i16], i64, i32, ptr, i64, ptr, i64, ptr, ptr, ptr, i32, i64, ptr, i32, ptr, i64, ptr, i64, ptr, i64, ptr, ptr, ptr, ptr, i64, i64, ptr, ptr, i32, i32, i32, i32 }
%struct.ssl_dane_st = type { ptr, ptr, ptr, ptr, ptr, i32, i32, i32, i64 }
%struct.anon.1 = type { [29 x i8], ptr, ptr, ptr, i32, ptr, i16, i32, %struct.anon.2, i32, i32, i64, ptr, i64, ptr, i64, ptr, i64, ptr, i64, ptr, i64, ptr, ptr, ptr, ptr, ptr, ptr, ptr, i64, ptr, i64, i32, i32, i32, i32, ptr, i64, i32, i8, i32, [4 x i32], i32, i8, i8, i8, i8 }
%struct.anon.2 = type { ptr, ptr, ptr, i64 }
%struct.srp_ctx_st = type { ptr, ptr, ptr, ptr, ptr, ptr, ptr, ptr, ptr, ptr, ptr, ptr, ptr, ptr, i32, i64 }
%struct.record_layer_st = type { ptr, ptr, ptr, ptr, ptr, ptr, ptr, ptr, i64, i32, i64, [4 x i8], i64, i64, i8, ptr, i32, ptr, ptr, ptr, i64, i64, i64, i64, [32 x %struct.tls_record_st] }
%struct.tls_record_st = type { ptr, i32, i8, ptr, ptr, i64, i64, i16, [8 x i8] }
%struct.ssl_ctx_st = type { ptr, ptr, ptr, ptr, ptr, ptr, ptr, i64, ptr, ptr, i32, %struct.OSSL_TIME, ptr, ptr, ptr, %struct.anon.4, %struct.CRYPTO_REF_COUNT, ptr, ptr, ptr, ptr, ptr, ptr, ptr, ptr, ptr, %struct.crypto_ex_data_st, ptr, ptr, ptr, ptr, ptr, ptr, ptr, i64, i32, i32, i32, i64, ptr, ptr, i32, ptr, ptr, i32, i64, [32 x i8], ptr, ptr, ptr, i32, ptr, ptr, ptr, i64, i64, i64, i64, ptr, ptr, ptr, ptr, ptr, %struct.anon.5, ptr, ptr, ptr, ptr, %struct.srp_ctx_st, %struct.dane_ctx_st, ptr, ptr, ptr, ptr, i32, i32, ptr, ptr, i64, i64, ptr, ptr, ptr, i64, ptr, ptr, i32, ptr, ptr, ptr, [14 x i32], [24 x ptr], [14 x ptr], [14 x i64], i64, ptr, ptr, ptr, i64, i64, ptr, i64, i64, i32, i32, i32, i32, ptr, i64, ptr, i64, i64, ptr, ptr }
%struct.anon.4 = type { i32, i32, i32, i32, i32, i32, i32, i32, i32, i32, i32 }
%struct.anon.5 = type { ptr, ptr, [16 x i8], ptr, ptr, ptr, ptr, ptr, i32, i8, i64, ptr, i64, ptr, i64, ptr, i64, ptr, ptr, i64, ptr, ptr, ptr, i64, ptr, ptr, ptr, ptr, [32 x i8] }
%struct.dane_ctx_st = type { ptr, ptr, i8, i64 }

@.str = private unnamed_addr constant [36 x i8] c"../openssl/ssl/statem/statem_clnt.c\00", align 1
@__func__.tls_process_initial_server_flight = private unnamed_addr constant [34 x i8] c"tls_process_initial_server_flight\00", align 1

; Function Attrs: nounwind uwtable
define i32 @tls_process_initial_server_flight(ptr noundef %0) #0 {
  %2 = alloca i32, align 4
  %3 = alloca ptr, align 8
  %4 = alloca ptr, align 8
  %5 = alloca i32, align 4
  %6 = alloca i32, align 4
  store ptr %0, ptr %3, align 8, !tbaa !3
  call void @llvm.lifetime.start.p0(i64 8, ptr %4) #8
  %7 = load ptr, ptr %3, align 8, !tbaa !3
  %8 = getelementptr inbounds nuw %struct.ssl_connection_st, ptr %7, i32 0, i32 0
  %9 = getelementptr inbounds nuw %struct.ssl_st, ptr %8, i32 0, i32 1
  %10 = load ptr, ptr %9, align 8, !tbaa !130
  store ptr %10, ptr %4, align 8, !tbaa !131
  %11 = load ptr, ptr %3, align 8, !tbaa !3
  %12 = call i32 @ssl3_check_cert_and_algorithm(ptr noundef %11)
  %13 = icmp ne i32 %12, 0
  br i1 %13, label %15, label %14

14:                                               ; preds = %1
  store i32 0, ptr %2, align 4
  store i32 1, ptr %5, align 4
  br label %71

15:                                               ; preds = %1
  %16 = load ptr, ptr %3, align 8, !tbaa !3
  %17 = getelementptr inbounds nuw %struct.ssl_connection_st, ptr %16, i32 0, i32 84
  %18 = getelementptr inbounds nuw %struct.anon.1, ptr %17, i32 0, i32 4
  %19 = load i32, ptr %18, align 8, !tbaa !267
  %20 = icmp ne i32 %19, -1
  br i1 %20, label %21, label %53

21:                                               ; preds = %15
  %22 = load ptr, ptr %4, align 8, !tbaa !131
  %23 = getelementptr inbounds nuw %struct.ssl_ctx_st, ptr %22, i32 0, i32 63
  %24 = getelementptr inbounds nuw %struct.anon.5, ptr %23, i32 0, i32 6
  %25 = load ptr, ptr %24, align 8, !tbaa !268
  %26 = icmp ne ptr %25, null
  br i1 %26, label %27, label %53

27:                                               ; preds = %21
  call void @llvm.lifetime.start.p0(i64 4, ptr %6) #8
  %28 = load ptr, ptr %4, align 8, !tbaa !131
  %29 = getelementptr inbounds nuw %struct.ssl_ctx_st, ptr %28, i32 0, i32 63
  %30 = getelementptr inbounds nuw %struct.anon.5, ptr %29, i32 0, i32 6
  %31 = load ptr, ptr %30, align 8, !tbaa !268
  %32 = load ptr, ptr %3, align 8, !tbaa !3
  %33 = getelementptr inbounds nuw %struct.ssl_connection_st, ptr %32, i32 0, i32 1
  %34 = load ptr, ptr %33, align 8, !tbaa !182
  %35 = load ptr, ptr %4, align 8, !tbaa !131
  %36 = getelementptr inbounds nuw %struct.ssl_ctx_st, ptr %35, i32 0, i32 63
  %37 = getelementptr inbounds nuw %struct.anon.5, ptr %36, i32 0, i32 7
  %38 = load ptr, ptr %37, align 8, !tbaa !269
  %39 = call i32 %31(ptr noundef %34, ptr noundef %38)
  store i32 %39, ptr %6, align 4, !tbaa !8
  %40 = load i32, ptr %6, align 4, !tbaa !8
  %41 = icmp eq i32 %40, 0
  br i1 %41, label %42, label %44

42:                                               ; preds = %27
  call void @ERR_new()
  call void @ERR_set_debug(ptr noundef @.str, i32 noundef 2953, ptr noundef @__func__.tls_process_initial_server_flight)
  %43 = load ptr, ptr %3, align 8, !tbaa !3
  call void (ptr, i32, i32, ptr, ...) @ossl_statem_fatal(ptr noundef %43, i32 noundef 113, i32 noundef 328, ptr noundef null)
  store i32 0, ptr %2, align 4
  store i32 1, ptr %5, align 4
  br label %50

44:                                               ; preds = %27
  %45 = load i32, ptr %6, align 4, !tbaa !8
  %46 = icmp slt i32 %45, 0
  br i1 %46, label %47, label %49

47:                                               ; preds = %44
  call void @ERR_new()
  call void @ERR_set_debug(ptr noundef @.str, i32 noundef 2958, ptr noundef @__func__.tls_process_initial_server_flight)
  %48 = load ptr, ptr %3, align 8, !tbaa !3
  call void (ptr, i32, i32, ptr, ...) @ossl_statem_fatal(ptr noundef %48, i32 noundef 80, i32 noundef 305, ptr noundef null)
  store i32 0, ptr %2, align 4
  store i32 1, ptr %5, align 4
  br label %50

49:                                               ; preds = %44
  store i32 0, ptr %5, align 4
  br label %50

50:                                               ; preds = %49, %47, %42
  call void @llvm.lifetime.end.p0(i64 4, ptr %6) #8
  %51 = load i32, ptr %5, align 4
  switch i32 %51, label %71 [
    i32 0, label %52
  ]

52:                                               ; preds = %50
  br label %53

53:                                               ; preds = %52, %21, %15
  %54 = load ptr, ptr %3, align 8, !tbaa !3
  %55 = getelementptr inbounds nuw %struct.ssl_connection_st, ptr %54, i32 0, i32 87
  %56 = load ptr, ptr %55, align 8, !tbaa !270
  %57 = icmp ne ptr %56, null
  br i1 %57, label %58, label %70

58:                                               ; preds = %53
  %59 = load ptr, ptr %3, align 8, !tbaa !3
  %60 = call i32 @ssl_validate_ct(ptr noundef %59)
  %61 = icmp ne i32 %60, 0
  br i1 %61, label %69, label %62

62:                                               ; preds = %58
  %63 = load ptr, ptr %3, align 8, !tbaa !3
  %64 = getelementptr inbounds nuw %struct.ssl_connection_st, ptr %63, i32 0, i32 61
  %65 = load i32, ptr %64, align 8, !tbaa !214
  %66 = and i32 %65, 1
  %67 = icmp ne i32 %66, 0
  br i1 %67, label %68, label %69

68:                                               ; preds = %62
  store i32 0, ptr %2, align 4
  store i32 1, ptr %5, align 4
  br label %71

69:                                               ; preds = %62, %58
  br label %70

70:                                               ; preds = %69, %53
  store i32 1, ptr %2, align 4
  store i32 1, ptr %5, align 4
  br label %71

71:                                               ; preds = %70, %68, %50, %14
  call void @llvm.lifetime.end.p0(i64 8, ptr %4) #8
  %72 = load i32, ptr %2, align 4
  ret i32 %72
}