; Function Attrs: nounwind uwtable
define range(i32 0, 2) i32 @tls_process_initial_server_flight(ptr noundef %0) local_unnamed_addr #0 {
  %2 = getelementptr inbounds nuw i8, ptr %0, i64 8
  %3 = load ptr, ptr %2, align 8, !tbaa !121
  %4 = tail call i32 @ssl3_check_cert_and_algorithm(ptr noundef %0)
  %.not = icmp eq i32 %4, 0
  br i1 %.not, label %.critedge, label %5

5:                                                ; preds = %1
  %6 = getelementptr inbounds nuw i8, ptr %0, i64 2600
  %7 = load i32, ptr %6, align 8, !tbaa !242
  %.not18 = icmp eq i32 %7, -1
  br i1 %.not18, label %22, label %8

8:                                                ; preds = %5
  %9 = getelementptr inbounds nuw i8, ptr %3, i64 616
  %10 = load ptr, ptr %9, align 8, !tbaa !243
  %.not19 = icmp eq ptr %10, null
  br i1 %.not19, label %22, label %11

11:                                               ; preds = %8
  %12 = getelementptr inbounds nuw i8, ptr %0, i64 64
  %13 = load ptr, ptr %12, align 8, !tbaa !163
  %14 = getelementptr inbounds nuw i8, ptr %3, i64 624
  %15 = load ptr, ptr %14, align 8, !tbaa !244
  %16 = tail call i32 %10(ptr noundef %13, ptr noundef %15) #8
  %17 = icmp eq i32 %16, 0
  br i1 %17, label %18, label %19

18:                                               ; preds = %11
  tail call void @ERR_new() #8
  tail call void @ERR_set_debug(ptr noundef nonnull @.str, i32 noundef 2953, ptr noundef nonnull @__func__.tls_process_initial_server_flight) #8
  tail call void (ptr, i32, i32, ptr, ...) @ossl_statem_fatal(ptr noundef nonnull %0, i32 noundef 113, i32 noundef 328, ptr noundef null) #8
  br label %.critedge

19:                                               ; preds = %11
  %20 = icmp slt i32 %16, 0
  br i1 %20, label %21, label %22

21:                                               ; preds = %19
  tail call void @ERR_new() #8
  tail call void @ERR_set_debug(ptr noundef nonnull @.str, i32 noundef 2958, ptr noundef nonnull @__func__.tls_process_initial_server_flight) #8
  tail call void (ptr, i32, i32, ptr, ...) @ossl_statem_fatal(ptr noundef nonnull %0, i32 noundef 80, i32 noundef 305, ptr noundef null) #8
  br label %.critedge

22:                                               ; preds = %19, %8, %5
  %23 = getelementptr inbounds nuw i8, ptr %0, i64 2920
  %24 = load ptr, ptr %23, align 8, !tbaa !245
  %.not20 = icmp eq ptr %24, null
  br i1 %.not20, label %31, label %25

25:                                               ; preds = %22
  %26 = tail call i32 @ssl_validate_ct(ptr noundef nonnull %0) #8
  %.not21 = icmp eq i32 %26, 0
  br i1 %.not21, label %27, label %31

27:                                               ; preds = %25
  %28 = getelementptr inbounds nuw i8, ptr %0, i64 2384
  %29 = load i32, ptr %28, align 8, !tbaa !213
  %30 = and i32 %29, 1
  %.not22 = icmp eq i32 %30, 0
  br i1 %.not22, label %31, label %.critedge

31:                                               ; preds = %25, %27, %22
  br label %.critedge

.critedge:                                        ; preds = %18, %21, %27, %1, %31
  %.0 = phi i32 [ 1, %31 ], [ 0, %1 ], [ 0, %27 ], [ 0, %21 ], [ 0, %18 ]
  ret i32 %.0
}